; Function Attrs: nounwind uwtable
define ptr @l_Array_forIn_x27Unsafe_loop___at_Lean_Linter_suspiciousUnexpanderPatterns___elambda__1___spec__6___lambda__1(ptr noundef %0, ptr noundef %1, ptr noundef %2, ptr noundef %3) local_unnamed_addr #0 {
  %5 = load ptr, ptr @l_Lean_Linter_getLinterSuspiciousUnexpanderPatterns___closed__1, align 8, !tbaa !4
  %6 = load ptr, ptr @l_Array_forIn_x27Unsafe_loop___at_Lean_Linter_suspiciousUnexpanderPatterns___elambda__1___spec__6___lambda__1___closed__3, align 8, !tbaa !4
  %7 = tail call ptr @l_Lean_Linter_logLint___at_Lean_Linter_suspiciousUnexpanderPatterns___elambda__1___spec__5(ptr noundef %5, ptr noundef %0, ptr noundef %6, ptr noundef %1, ptr noundef %2, ptr noundef %3)
  %.val = load i32, ptr %7, align 4, !tbaa !8
  %8 = icmp eq i32 %.val, 1
  br i1 %8, label %9, label %22

9:                                                ; preds = %4
  %10 = getelementptr inbounds nuw i8, ptr %7, i64 8
  %11 = load ptr, ptr %10, align 8, !tbaa !4
  %12 = ptrtoint ptr %11 to i64
  %13 = and i64 %12, 1
  %.not26 = icmp eq i64 %13, 0
  br i1 %.not26, label %14, label %lean_dec.exit21

14:                                               ; preds = %9
  %15 = load i32, ptr %11, align 4, !tbaa !8
  %16 = icmp sgt i32 %15, 1
  br i1 %16, label %17, label %19, !prof !11

17:                                               ; preds = %14
  %18 = add nsw i32 %15, -1
  store i32 %18, ptr %11, align 4, !tbaa !8
  br label %lean_dec.exit21

19:                                               ; preds = %14
  %.not.i = icmp eq i32 %15, 0
  br i1 %.not.i, label %lean_dec.exit21, label %20

20:                                               ; preds = %19
  tail call void @lean_dec_ref_cold(ptr noundef nonnull %11) #5
  br label %lean_dec.exit21

lean_dec.exit21:                                  ; preds = %20, %19, %17, %9
  %21 = load ptr, ptr @l_Array_forIn_x27Unsafe_loop___at_Lean_Linter_suspiciousUnexpanderPatterns___elambda__1___spec__6___lambda__1___closed__4, align 8, !tbaa !4
  store ptr %21, ptr %10, align 8, !tbaa !4
  br label %49

22:                                               ; preds = %4
  %23 = getelementptr inbounds nuw i8, ptr %7, i64 16
  %24 = load ptr, ptr %23, align 8, !tbaa !4
  %25 = ptrtoint ptr %24 to i64
  %26 = and i64 %25, 1
  %.not = icmp eq i64 %26, 0
  br i1 %.not, label %27, label %lean_inc.exit

27:                                               ; preds = %22
  %.val.i = load i32, ptr %24, align 4, !tbaa !8
  %28 = icmp sgt i32 %.val.i, 0
  br i1 %28, label %29, label %31, !prof !11

29:                                               ; preds = %27
  %30 = add nuw i32 %.val.i, 1
  store i32 %30, ptr %24, align 4, !tbaa !8
  br label %lean_inc.exit

31:                                               ; preds = %27
  %.not.i24 = icmp eq i32 %.val.i, 0
  br i1 %.not.i24, label %lean_inc.exit, label %32

32:                                               ; preds = %31
  tail call void @lean_inc_ref_cold(ptr noundef nonnull %24) #5
  br label %lean_inc.exit

lean_inc.exit:                                    ; preds = %32, %31, %29, %22
  %33 = ptrtoint ptr %7 to i64
  %34 = and i64 %33, 1
  %.not25 = icmp eq i64 %34, 0
  br i1 %.not25, label %35, label %lean_dec.exit

35:                                               ; preds = %lean_inc.exit
  %36 = load i32, ptr %7, align 4, !tbaa !8
  %37 = icmp sgt i32 %36, 1
  br i1 %37, label %38, label %40, !prof !11

38:                                               ; preds = %35
  %39 = add nsw i32 %36, -1
  store i32 %39, ptr %7, align 4, !tbaa !8
  br label %lean_dec.exit

40:                                               ; preds = %35
  %.not.i22 = icmp eq i32 %36, 0
  br i1 %.not.i22, label %lean_dec.exit, label %41

41:                                               ; preds = %40
  tail call void @lean_dec_ref_cold(ptr noundef nonnull %7) #5
  br label %lean_dec.exit

lean_dec.exit:                                    ; preds = %41, %40, %38, %lean_inc.exit
  %42 = load ptr, ptr @l_Array_forIn_x27Unsafe_loop___at_Lean_Linter_suspiciousUnexpanderPatterns___elambda__1___spec__6___lambda__1___closed__4, align 8, !tbaa !4
  tail call void @lean_inc_heartbeat() #5
  %43 = tail call noalias ptr @mi_malloc_small(i64 noundef 24) #5
  %44 = icmp eq ptr %43, null
  br i1 %44, label %45, label %lean_alloc_ctor.exit

45:                                               ; preds = %lean_dec.exit
  tail call void @lean_internal_panic_out_of_memory() #6
  unreachable

lean_alloc_ctor.exit:                             ; preds = %lean_dec.exit
  %46 = getelementptr inbounds nuw i8, ptr %43, i64 4
  store i32 1, ptr %43, align 4, !tbaa !8
  store i32 131096, ptr %46, align 4
  %47 = getelementptr inbounds nuw i8, ptr %43, i64 8
  store ptr %42, ptr %47, align 8, !tbaa !4
  %48 = getelementptr inbounds nuw i8, ptr %43, i64 16
  store ptr %24, ptr %48, align 8, !tbaa !4
  br label %49

49:                                               ; preds = %lean_alloc_ctor.exit, %lean_dec.exit21
  %.0 = phi ptr [ %7, %lean_dec.exit21 ], [ %43, %lean_alloc_ctor.exit ]
  ret ptr %.0
}